target datalayout = "e-m:e-p270:32:32-p271:32:32-p272:64:64-i64:64-i128:128-f80:128-n8:16:32:64-S128"
target triple = "x86_64-pc-linux-gnu"

%struct.StreamSpecifier = type { i32, i32, i64, i32, i8, i8, i32, ptr, ptr, ptr }

; Function Attrs: nounwind uwtable
define void @stream_specifier_uninit(ptr noundef %0) #0 {
  %2 = alloca ptr, align 8
  store ptr %0, ptr %2, align 8, !tbaa !119
  %3 = load ptr, ptr %2, align 8, !tbaa !119
  %4 = getelementptr inbounds nuw %struct.StreamSpecifier, ptr %3, i32 0, i32 7
  call void @av_freep(ptr noundef %4)
  %5 = load ptr, ptr %2, align 8, !tbaa !119
  %6 = getelementptr inbounds nuw %struct.StreamSpecifier, ptr %5, i32 0, i32 8
  call void @av_freep(ptr noundef %6)
  %7 = load ptr, ptr %2, align 8, !tbaa !119
  %8 = getelementptr inbounds nuw %struct.StreamSpecifier, ptr %7, i32 0, i32 9
  call void @av_freep(ptr noundef %8)
  %9 = load ptr, ptr %2, align 8, !tbaa !119
  call void @llvm.memset.p0.i64(ptr align 8 %9, i8 0, i64 56, i1 false)
  ret void
}