; Function Attrs: nounwind uwtable
define void @stream_specifier_uninit(ptr noundef %0) local_unnamed_addr #0 {
  %2 = getelementptr inbounds nuw i8, ptr %0, i64 32
  tail call void @av_freep(ptr noundef nonnull %2) #15
  %3 = getelementptr inbounds nuw i8, ptr %0, i64 40
  tail call void @av_freep(ptr noundef nonnull %3) #15
  %4 = getelementptr inbounds nuw i8, ptr %0, i64 48
  tail call void @av_freep(ptr noundef nonnull %4) #15
  tail call void @llvm.memset.p0.i64(ptr noundef nonnull align 8 dereferenceable(56) %0, i8 0, i64 56, i1 false)
  ret void
}